; Function Attrs: mustprogress nofree norecurse nosync nounwind willreturn memory(read, inaccessiblemem: none) uwtable
define hidden noundef ptr @_ZNK19OpenColorIO_v2_5dev14ColorSpaceInfo17getHierarchyLevelEm(ptr noundef nonnull readonly align 8 captures(none) dereferenceable(160) %0, i64 noundef %1) local_unnamed_addr #9 align 2 {
  %3 = getelementptr inbounds nuw i8, ptr %0, i64 136
  %4 = getelementptr inbounds nuw i8, ptr %0, i64 144
  %5 = load ptr, ptr %4, align 8, !tbaa !68
  %6 = load ptr, ptr %3, align 8, !tbaa !65
  %7 = ptrtoint ptr %5 to i64
  %8 = ptrtoint ptr %6 to i64
  %9 = sub i64 %7, %8
  %10 = ashr exact i64 %9, 5
  %11 = icmp ult i64 %1, %10
  br i1 %11, label %12, label %15

12:                                               ; preds = %2
  %13 = getelementptr inbounds nuw %"class.std::__cxx11::basic_string", ptr %6, i64 %1
  %14 = load ptr, ptr %13, align 8, !tbaa !54
  br label %15

15:                                               ; preds = %2, %12
  %.0 = phi ptr [ %14, %12 ], [ @.str.2, %2 ]
  ret ptr %.0
}